target datalayout = "e-m:e-p270:32:32-p271:32:32-p272:64:64-i64:64-i128:128-f80:128-n8:16:32:64-S128"
target triple = "x86_64-pc-linux-gnu"

%"class.zmq::trie_t" = type { i32, i8, i16, i16, %union.anon }
%union.anon = type { ptr }

@stderr = external global ptr, align 8
@.str = private unnamed_addr constant [30 x i8] c"Assertion failed: %s (%s:%d)\0A\00", align 1
@.str.2 = private unnamed_addr constant [104 x i8] c"generated/home/dtcxzyw/WorkSpace/Projects/compilers/llvm-opt-benchmark/bench/libzmq/libzmq/src/trie.cpp\00", align 1
@.str.15 = private unnamed_addr constant [7 x i8] c"*buff_\00", align 1

; Function Attrs: mustprogress uwtable
define void @_ZNK3zmq6trie_t12apply_helperEPPhmmPFvS1_mPvES3_(ptr noundef nonnull align 8 dereferenceable(24) %0, ptr noundef %1, i64 noundef %2, i64 noundef %3, ptr noundef %4, ptr noundef %5) #7 align 2 {
  %7 = alloca ptr, align 8
  %8 = alloca ptr, align 8
  %9 = alloca i64, align 8
  %10 = alloca i64, align 8
  %11 = alloca ptr, align 8
  %12 = alloca ptr, align 8
  %13 = alloca i16, align 2
  store ptr %0, ptr %7, align 8, !tbaa !3
  store ptr %1, ptr %8, align 8, !tbaa !39
  store i64 %2, ptr %9, align 8, !tbaa !23
  store i64 %3, ptr %10, align 8, !tbaa !23
  store ptr %4, ptr %11, align 8, !tbaa !38
  store ptr %5, ptr %12, align 8, !tbaa !38
  %14 = load ptr, ptr %7, align 8
  %15 = getelementptr inbounds nuw %"class.zmq::trie_t", ptr %14, i32 0, i32 0
  %16 = load i32, ptr %15, align 8, !tbaa !8
  %17 = icmp ne i32 %16, 0
  br i1 %17, label %18, label %24

18:                                               ; preds = %6
  %19 = load ptr, ptr %11, align 8, !tbaa !38
  %20 = load ptr, ptr %8, align 8, !tbaa !39
  %21 = load ptr, ptr %20, align 8, !tbaa !21
  %22 = load i64, ptr %9, align 8, !tbaa !23
  %23 = load ptr, ptr %12, align 8, !tbaa !38
  call void %19(ptr noundef %21, i64 noundef %22, ptr noundef %23)
  br label %24

24:                                               ; preds = %18, %6
  %25 = load i64, ptr %9, align 8, !tbaa !23
  %26 = load i64, ptr %10, align 8, !tbaa !23
  %27 = icmp uge i64 %25, %26
  br i1 %27, label %28, label %51

28:                                               ; preds = %24
  %29 = load i64, ptr %9, align 8, !tbaa !23
  %30 = add i64 %29, 256
  store i64 %30, ptr %10, align 8, !tbaa !23
  %31 = load ptr, ptr %8, align 8, !tbaa !39
  %32 = load ptr, ptr %31, align 8, !tbaa !21
  %33 = load i64, ptr %10, align 8, !tbaa !23
  %34 = call ptr @realloc(ptr noundef %32, i64 noundef %33) #17
  %35 = load ptr, ptr %8, align 8, !tbaa !39
  store ptr %34, ptr %35, align 8, !tbaa !21
  br label %36

36:                                               ; preds = %28
  %37 = load ptr, ptr %8, align 8, !tbaa !39
  %38 = load ptr, ptr %37, align 8, !tbaa !21
  %39 = icmp ne ptr %38, null
  %40 = xor i1 %39, true
  %41 = zext i1 %40 to i64
  %42 = call i64 @llvm.expect.i64(i64 %41, i64 0)
  %43 = icmp ne i64 %42, 0
  br i1 %43, label %44, label %49

44:                                               ; preds = %36
  %45 = load ptr, ptr @stderr, align 8, !tbaa !16
  %46 = call i32 (ptr, ptr, ...) @fprintf(ptr noundef %45, ptr noundef @.str, ptr noundef @.str.15, ptr noundef @.str.2, i32 noundef 269) #13
  %47 = load ptr, ptr @stderr, align 8, !tbaa !16
  %48 = call i32 @fflush(ptr noundef %47)
  call void @_ZN3zmq9zmq_abortEPKc(ptr noundef @.str.15)
  br label %49

49:                                               ; preds = %44, %36
  br label %50

50:                                               ; preds = %49
  br label %51

51:                                               ; preds = %50, %24
  %52 = getelementptr inbounds nuw %"class.zmq::trie_t", ptr %14, i32 0, i32 2
  %53 = load i16, ptr %52, align 2, !tbaa !13
  %54 = zext i16 %53 to i32
  %55 = icmp eq i32 %54, 0
  br i1 %55, label %56, label %57

56:                                               ; preds = %51
  br label %123

57:                                               ; preds = %51
  %58 = getelementptr inbounds nuw %"class.zmq::trie_t", ptr %14, i32 0, i32 2
  %59 = load i16, ptr %58, align 2, !tbaa !13
  %60 = zext i16 %59 to i32
  %61 = icmp eq i32 %60, 1
  br i1 %61, label %62, label %78

62:                                               ; preds = %57
  %63 = getelementptr inbounds nuw %"class.zmq::trie_t", ptr %14, i32 0, i32 1
  %64 = load i8, ptr %63, align 4, !tbaa !12
  %65 = load ptr, ptr %8, align 8, !tbaa !39
  %66 = load ptr, ptr %65, align 8, !tbaa !21
  %67 = load i64, ptr %9, align 8, !tbaa !23
  %68 = getelementptr inbounds nuw i8, ptr %66, i64 %67
  store i8 %64, ptr %68, align 1, !tbaa !15
  %69 = load i64, ptr %9, align 8, !tbaa !23
  %70 = add i64 %69, 1
  store i64 %70, ptr %9, align 8, !tbaa !23
  %71 = getelementptr inbounds nuw %"class.zmq::trie_t", ptr %14, i32 0, i32 4
  %72 = load ptr, ptr %71, align 8, !tbaa !15
  %73 = load ptr, ptr %8, align 8, !tbaa !39
  %74 = load i64, ptr %9, align 8, !tbaa !23
  %75 = load i64, ptr %10, align 8, !tbaa !23
  %76 = load ptr, ptr %11, align 8, !tbaa !38
  %77 = load ptr, ptr %12, align 8, !tbaa !38
  call void @_ZNK3zmq6trie_t12apply_helperEPPhmmPFvS1_mPvES3_(ptr noundef nonnull align 8 dereferenceable(24) %72, ptr noundef %73, i64 noundef %74, i64 noundef %75, ptr noundef %76, ptr noundef %77)
  br label %123

78:                                               ; preds = %57
  call void @llvm.lifetime.start.p0(i64 2, ptr %13) #13
  store i16 0, ptr %13, align 2, !tbaa !18
  br label %79

79:                                               ; preds = %120, %78
  %80 = load i16, ptr %13, align 2, !tbaa !18
  %81 = zext i16 %80 to i32
  %82 = getelementptr inbounds nuw %"class.zmq::trie_t", ptr %14, i32 0, i32 2
  %83 = load i16, ptr %82, align 2, !tbaa !13
  %84 = zext i16 %83 to i32
  %85 = icmp ne i32 %81, %84
  br i1 %85, label %87, label %86

86:                                               ; preds = %79
  call void @llvm.lifetime.end.p0(i64 2, ptr %13) #13
  br label %123

87:                                               ; preds = %79
  %88 = getelementptr inbounds nuw %"class.zmq::trie_t", ptr %14, i32 0, i32 1
  %89 = load i8, ptr %88, align 4, !tbaa !12
  %90 = zext i8 %89 to i32
  %91 = load i16, ptr %13, align 2, !tbaa !18
  %92 = zext i16 %91 to i32
  %93 = add nsw i32 %90, %92
  %94 = trunc i32 %93 to i8
  %95 = load ptr, ptr %8, align 8, !tbaa !39
  %96 = load ptr, ptr %95, align 8, !tbaa !21
  %97 = load i64, ptr %9, align 8, !tbaa !23
  %98 = getelementptr inbounds nuw i8, ptr %96, i64 %97
  store i8 %94, ptr %98, align 1, !tbaa !15
  %99 = getelementptr inbounds nuw %"class.zmq::trie_t", ptr %14, i32 0, i32 4
  %100 = load ptr, ptr %99, align 8, !tbaa !15
  %101 = load i16, ptr %13, align 2, !tbaa !18
  %102 = zext i16 %101 to i64
  %103 = getelementptr inbounds nuw ptr, ptr %100, i64 %102
  %104 = load ptr, ptr %103, align 8, !tbaa !3
  %105 = icmp ne ptr %104, null
  br i1 %105, label %106, label %119

106:                                              ; preds = %87
  %107 = getelementptr inbounds nuw %"class.zmq::trie_t", ptr %14, i32 0, i32 4
  %108 = load ptr, ptr %107, align 8, !tbaa !15
  %109 = load i16, ptr %13, align 2, !tbaa !18
  %110 = zext i16 %109 to i64
  %111 = getelementptr inbounds nuw ptr, ptr %108, i64 %110
  %112 = load ptr, ptr %111, align 8, !tbaa !3
  %113 = load ptr, ptr %8, align 8, !tbaa !39
  %114 = load i64, ptr %9, align 8, !tbaa !23
  %115 = add i64 %114, 1
  %116 = load i64, ptr %10, align 8, !tbaa !23
  %117 = load ptr, ptr %11, align 8, !tbaa !38
  %118 = load ptr, ptr %12, align 8, !tbaa !38
  call void @_ZNK3zmq6trie_t12apply_helperEPPhmmPFvS1_mPvES3_(ptr noundef nonnull align 8 dereferenceable(24) %112, ptr noundef %113, i64 noundef %115, i64 noundef %116, ptr noundef %117, ptr noundef %118)
  br label %119

119:                                              ; preds = %106, %87
  br label %120

120:                                              ; preds = %119
  %121 = load i16, ptr %13, align 2, !tbaa !18
  %122 = add i16 %121, 1
  store i16 %122, ptr %13, align 2, !tbaa !18
  br label %79, !llvm.loop !41

123:                                              ; preds = %56, %62, %86
  ret void
}