; Function Attrs: mustprogress uwtable
define void @_ZNK3zmq6trie_t12apply_helperEPPhmmPFvS1_mPvES3_(ptr noundef nonnull readonly align 8 captures(none) dereferenceable(24) %0, ptr noundef captures(none) %1, i64 noundef %2, i64 noundef %3, ptr noundef readonly captures(none) %4, ptr noundef %5) local_unnamed_addr #9 align 2 {
  br label %tailrecurse

tailrecurse:                                      ; preds = %27, %6
  %.tr = phi ptr [ %0, %6 ], [ %34, %27 ]
  %.tr42 = phi i64 [ %2, %6 ], [ %32, %27 ]
  %.tr43 = phi i64 [ %3, %6 ], [ %.031, %27 ]
  %7 = load i32, ptr %.tr, align 8, !tbaa !3
  %.not = icmp eq i32 %7, 0
  br i1 %.not, label %10, label %8

8:                                                ; preds = %tailrecurse
  %9 = load ptr, ptr %1, align 8, !tbaa !29
  tail call void %4(ptr noundef %9, i64 noundef %.tr42, ptr noundef %5)
  br label %10

10:                                               ; preds = %8, %tailrecurse
  %.not37 = icmp ult i64 %.tr42, %.tr43
  br i1 %.not37, label %20, label %11

11:                                               ; preds = %10
  %12 = add i64 %.tr42, 256
  %13 = load ptr, ptr %1, align 8, !tbaa !29
  %14 = tail call ptr @realloc(ptr noundef %13, i64 noundef %12) #22
  store ptr %14, ptr %1, align 8, !tbaa !29
  %.not38 = icmp eq ptr %14, null
  br i1 %.not38, label %15, label %20, !prof !13

15:                                               ; preds = %11
  %16 = load ptr, ptr @stderr, align 8, !tbaa !14
  %17 = tail call i32 (ptr, ptr, ...) @fprintf(ptr noundef %16, ptr noundef nonnull @.str, ptr noundef nonnull @.str.15, ptr noundef nonnull @.str.2, i32 noundef 269) #17
  %18 = load ptr, ptr @stderr, align 8, !tbaa !14
  %19 = tail call i32 @fflush(ptr noundef %18)
  tail call void @_ZN3zmq9zmq_abortEPKc(ptr noundef nonnull @.str.15)
  br label %20

20:                                               ; preds = %15, %11, %10
  %.031 = phi i64 [ %12, %15 ], [ %12, %11 ], [ %.tr43, %10 ]
  %21 = getelementptr inbounds nuw i8, ptr %.tr, i64 6
  %22 = load i16, ptr %21, align 2, !tbaa !10
  switch i16 %22, label %.lr.ph [
    i16 0, label %.loopexit
    i16 1, label %27
  ]

.lr.ph:                                           ; preds = %20
  %23 = getelementptr inbounds nuw i8, ptr %.tr, i64 6
  %24 = getelementptr inbounds nuw i8, ptr %.tr, i64 4
  %25 = getelementptr inbounds nuw i8, ptr %.tr, i64 16
  %26 = add i64 %.tr42, 1
  br label %35

27:                                               ; preds = %20
  %28 = getelementptr inbounds nuw i8, ptr %.tr, i64 4
  %29 = load i8, ptr %28, align 4, !tbaa !9
  %30 = load ptr, ptr %1, align 8, !tbaa !29
  %31 = getelementptr inbounds nuw i8, ptr %30, i64 %.tr42
  store i8 %29, ptr %31, align 1, !tbaa !12
  %32 = add i64 %.tr42, 1
  %33 = getelementptr inbounds nuw i8, ptr %.tr, i64 16
  %34 = load ptr, ptr %33, align 8, !tbaa !12
  br label %tailrecurse

35:                                               ; preds = %.lr.ph, %46
  %.053 = phi i16 [ 0, %.lr.ph ], [ %47, %46 ]
  %36 = trunc i16 %.053 to i8
  %37 = load i8, ptr %24, align 4, !tbaa !9
  %38 = add i8 %37, %36
  %39 = load ptr, ptr %1, align 8, !tbaa !29
  %40 = getelementptr inbounds nuw i8, ptr %39, i64 %.tr42
  store i8 %38, ptr %40, align 1, !tbaa !12
  %41 = load ptr, ptr %25, align 8, !tbaa !12
  %42 = zext i16 %.053 to i64
  %43 = getelementptr inbounds nuw ptr, ptr %41, i64 %42
  %44 = load ptr, ptr %43, align 8, !tbaa !17
  %.not40 = icmp eq ptr %44, null
  br i1 %.not40, label %46, label %45

45:                                               ; preds = %35
  tail call void @_ZNK3zmq6trie_t12apply_helperEPPhmmPFvS1_mPvES3_(ptr noundef nonnull align 8 dereferenceable(24) %44, ptr noundef nonnull %1, i64 noundef %26, i64 noundef %.031, ptr noundef %4, ptr noundef %5)
  br label %46

46:                                               ; preds = %35, %45
  %47 = add i16 %.053, 1
  %48 = load i16, ptr %23, align 2, !tbaa !10
  %.not39 = icmp eq i16 %47, %48
  br i1 %.not39, label %.loopexit, label %35, !llvm.loop !31

.loopexit:                                        ; preds = %20, %46
  ret void
}